target datalayout = "e-m:e-p270:32:32-p271:32:32-p272:64:64-i64:64-i128:128-f80:128-n8:16:32:64-S128"
target triple = "x86_64-pc-linux-gnu"

%struct.Map_NodeStruct_t_ = type { ptr, ptr, i32, i32, i32, i32, [3 x i32], [3 x float], float, ptr, ptr, ptr, ptr, [2 x %struct.Map_TimeStruct_t_], [2 x %struct.Map_TimeStruct_t_], [2 x ptr], ptr, ptr, ptr }
%struct.Map_TimeStruct_t_ = type { float, float, float }
%struct.Map_CutStruct_t_ = type { ptr, ptr, ptr, [6 x ptr], i32, i8, i8, i8, i8, [2 x %struct.Map_MatchStruct_t_] }
%struct.Map_MatchStruct_t_ = type { ptr, i32, i32, ptr, %struct.Map_TimeStruct_t_, float }
%struct.Map_SuperStruct_t_ = type { i32, i32, [4 x i8], i32, [6 x ptr], ptr, [2 x i32], [6 x %struct.Map_TimeStruct_t_], [6 x %struct.Map_TimeStruct_t_], %struct.Map_TimeStruct_t_, float, ptr, ptr }

; Function Attrs: nounwind uwtable
define float @Map_MatchComputeReqTimes(ptr noundef %0, i32 noundef %1, ptr noundef %2) #0 {
  %4 = alloca ptr, align 8
  %5 = alloca i32, align 4
  %6 = alloca ptr, align 8
  %7 = alloca ptr, align 8
  %8 = alloca ptr, align 8
  %9 = alloca i32, align 4
  %10 = alloca i32, align 4
  %11 = alloca i32, align 4
  %12 = alloca float, align 4
  store ptr %0, ptr %4, align 8
  store i32 %1, ptr %5, align 4
  store ptr %2, ptr %6, align 8
  %13 = load ptr, ptr %4, align 8
  %14 = getelementptr inbounds %struct.Map_CutStruct_t_, ptr %13, i32 0, i32 9
  %15 = load i32, ptr %5, align 4
  %16 = sext i32 %15 to i64
  %17 = getelementptr inbounds [2 x %struct.Map_MatchStruct_t_], ptr %14, i64 0, i64 %16
  %18 = getelementptr inbounds %struct.Map_MatchStruct_t_, ptr %17, i32 0, i32 3
  %19 = load ptr, ptr %18, align 8
  store ptr %19, ptr %8, align 8
  %20 = load ptr, ptr %4, align 8
  %21 = getelementptr inbounds %struct.Map_CutStruct_t_, ptr %20, i32 0, i32 9
  %22 = load i32, ptr %5, align 4
  %23 = sext i32 %22 to i64
  %24 = getelementptr inbounds [2 x %struct.Map_MatchStruct_t_], ptr %21, i64 0, i64 %23
  %25 = getelementptr inbounds %struct.Map_MatchStruct_t_, ptr %24, i32 0, i32 2
  %26 = load i32, ptr %25, align 4
  store i32 %26, ptr %9, align 4
  %27 = load ptr, ptr %6, align 8
  %28 = getelementptr inbounds %struct.Map_TimeStruct_t_, ptr %27, i32 0, i32 1
  store float 0xC7B9999980000000, ptr %28, align 4
  %29 = load ptr, ptr %6, align 8
  %30 = getelementptr inbounds %struct.Map_TimeStruct_t_, ptr %29, i32 0, i32 0
  store float 0xC7B9999980000000, ptr %30, align 4
  store i32 0, ptr %11, align 4
  br label %31

31:                                               ; preds = %180, %3
  %32 = load i32, ptr %11, align 4
  %33 = load ptr, ptr %4, align 8
  %34 = getelementptr inbounds %struct.Map_CutStruct_t_, ptr %33, i32 0, i32 5
  %35 = load i8, ptr %34, align 4
  %36 = sext i8 %35 to i32
  %37 = icmp slt i32 %32, %36
  br i1 %37, label %38, label %183

38:                                               ; preds = %31
  %39 = load i32, ptr %9, align 4
  %40 = load i32, ptr %11, align 4
  %41 = shl i32 1, %40
  %42 = and i32 %39, %41
  %43 = icmp eq i32 %42, 0
  %44 = zext i1 %43 to i32
  store i32 %44, ptr %10, align 4
  %45 = load ptr, ptr %4, align 8
  %46 = getelementptr inbounds %struct.Map_CutStruct_t_, ptr %45, i32 0, i32 3
  %47 = load i32, ptr %11, align 4
  %48 = sext i32 %47 to i64
  %49 = getelementptr inbounds [6 x ptr], ptr %46, i64 0, i64 %48
  %50 = load ptr, ptr %49, align 8
  %51 = getelementptr inbounds %struct.Map_NodeStruct_t_, ptr %50, i32 0, i32 14
  %52 = getelementptr inbounds [2 x %struct.Map_TimeStruct_t_], ptr %51, i64 0, i64 0
  %53 = load i32, ptr %10, align 4
  %54 = sext i32 %53 to i64
  %55 = getelementptr inbounds %struct.Map_TimeStruct_t_, ptr %52, i64 %54
  store ptr %55, ptr %7, align 8
  %56 = load ptr, ptr %8, align 8
  %57 = getelementptr inbounds %struct.Map_SuperStruct_t_, ptr %56, i32 0, i32 7
  %58 = load i32, ptr %11, align 4
  %59 = sext i32 %58 to i64
  %60 = getelementptr inbounds [6 x %struct.Map_TimeStruct_t_], ptr %57, i64 0, i64 %59
  %61 = getelementptr inbounds %struct.Map_TimeStruct_t_, ptr %60, i32 0, i32 0
  %62 = load float, ptr %61, align 4
  %63 = fcmp ogt float %62, 0.000000e+00
  br i1 %63, label %64, label %86

64:                                               ; preds = %38
  %65 = load ptr, ptr %7, align 8
  %66 = getelementptr inbounds %struct.Map_TimeStruct_t_, ptr %65, i32 0, i32 0
  %67 = load float, ptr %66, align 4
  %68 = load ptr, ptr %8, align 8
  %69 = getelementptr inbounds %struct.Map_SuperStruct_t_, ptr %68, i32 0, i32 7
  %70 = load i32, ptr %11, align 4
  %71 = sext i32 %70 to i64
  %72 = getelementptr inbounds [6 x %struct.Map_TimeStruct_t_], ptr %69, i64 0, i64 %71
  %73 = getelementptr inbounds %struct.Map_TimeStruct_t_, ptr %72, i32 0, i32 0
  %74 = load float, ptr %73, align 4
  %75 = fadd float %67, %74
  store float %75, ptr %12, align 4
  %76 = load ptr, ptr %6, align 8
  %77 = getelementptr inbounds %struct.Map_TimeStruct_t_, ptr %76, i32 0, i32 0
  %78 = load float, ptr %77, align 4
  %79 = load float, ptr %12, align 4
  %80 = fcmp olt float %78, %79
  br i1 %80, label %81, label %85

81:                                               ; preds = %64
  %82 = load float, ptr %12, align 4
  %83 = load ptr, ptr %6, align 8
  %84 = getelementptr inbounds %struct.Map_TimeStruct_t_, ptr %83, i32 0, i32 0
  store float %82, ptr %84, align 4
  br label %85

85:                                               ; preds = %81, %64
  br label %86

86:                                               ; preds = %85, %38
  %87 = load ptr, ptr %8, align 8
  %88 = getelementptr inbounds %struct.Map_SuperStruct_t_, ptr %87, i32 0, i32 7
  %89 = load i32, ptr %11, align 4
  %90 = sext i32 %89 to i64
  %91 = getelementptr inbounds [6 x %struct.Map_TimeStruct_t_], ptr %88, i64 0, i64 %90
  %92 = getelementptr inbounds %struct.Map_TimeStruct_t_, ptr %91, i32 0, i32 1
  %93 = load float, ptr %92, align 4
  %94 = fcmp ogt float %93, 0.000000e+00
  br i1 %94, label %95, label %117

95:                                               ; preds = %86
  %96 = load ptr, ptr %7, align 8
  %97 = getelementptr inbounds %struct.Map_TimeStruct_t_, ptr %96, i32 0, i32 1
  %98 = load float, ptr %97, align 4
  %99 = load ptr, ptr %8, align 8
  %100 = getelementptr inbounds %struct.Map_SuperStruct_t_, ptr %99, i32 0, i32 7
  %101 = load i32, ptr %11, align 4
  %102 = sext i32 %101 to i64
  %103 = getelementptr inbounds [6 x %struct.Map_TimeStruct_t_], ptr %100, i64 0, i64 %102
  %104 = getelementptr inbounds %struct.Map_TimeStruct_t_, ptr %103, i32 0, i32 1
  %105 = load float, ptr %104, align 4
  %106 = fadd float %98, %105
  store float %106, ptr %12, align 4
  %107 = load ptr, ptr %6, align 8
  %108 = getelementptr inbounds %struct.Map_TimeStruct_t_, ptr %107, i32 0, i32 0
  %109 = load float, ptr %108, align 4
  %110 = load float, ptr %12, align 4
  %111 = fcmp olt float %109, %110
  br i1 %111, label %112, label %116

112:                                              ; preds = %95
  %113 = load float, ptr %12, align 4
  %114 = load ptr, ptr %6, align 8
  %115 = getelementptr inbounds %struct.Map_TimeStruct_t_, ptr %114, i32 0, i32 0
  store float %113, ptr %115, align 4
  br label %116

116:                                              ; preds = %112, %95
  br label %117

117:                                              ; preds = %116, %86
  %118 = load ptr, ptr %8, align 8
  %119 = getelementptr inbounds %struct.Map_SuperStruct_t_, ptr %118, i32 0, i32 8
  %120 = load i32, ptr %11, align 4
  %121 = sext i32 %120 to i64
  %122 = getelementptr inbounds [6 x %struct.Map_TimeStruct_t_], ptr %119, i64 0, i64 %121
  %123 = getelementptr inbounds %struct.Map_TimeStruct_t_, ptr %122, i32 0, i32 0
  %124 = load float, ptr %123, align 4
  %125 = fcmp ogt float %124, 0.000000e+00
  br i1 %125, label %126, label %148

126:                                              ; preds = %117
  %127 = load ptr, ptr %7, align 8
  %128 = getelementptr inbounds %struct.Map_TimeStruct_t_, ptr %127, i32 0, i32 0
  %129 = load float, ptr %128, align 4
  %130 = load ptr, ptr %8, align 8
  %131 = getelementptr inbounds %struct.Map_SuperStruct_t_, ptr %130, i32 0, i32 8
  %132 = load i32, ptr %11, align 4
  %133 = sext i32 %132 to i64
  %134 = getelementptr inbounds [6 x %struct.Map_TimeStruct_t_], ptr %131, i64 0, i64 %133
  %135 = getelementptr inbounds %struct.Map_TimeStruct_t_, ptr %134, i32 0, i32 0
  %136 = load float, ptr %135, align 4
  %137 = fadd float %129, %136
  store float %137, ptr %12, align 4
  %138 = load ptr, ptr %6, align 8
  %139 = getelementptr inbounds %struct.Map_TimeStruct_t_, ptr %138, i32 0, i32 1
  %140 = load float, ptr %139, align 4
  %141 = load float, ptr %12, align 4
  %142 = fcmp olt float %140, %141
  br i1 %142, label %143, label %147

143:                                              ; preds = %126
  %144 = load float, ptr %12, align 4
  %145 = load ptr, ptr %6, align 8
  %146 = getelementptr inbounds %struct.Map_TimeStruct_t_, ptr %145, i32 0, i32 1
  store float %144, ptr %146, align 4
  br label %147

147:                                              ; preds = %143, %126
  br label %148

148:                                              ; preds = %147, %117
  %149 = load ptr, ptr %8, align 8
  %150 = getelementptr inbounds %struct.Map_SuperStruct_t_, ptr %149, i32 0, i32 8
  %151 = load i32, ptr %11, align 4
  %152 = sext i32 %151 to i64
  %153 = getelementptr inbounds [6 x %struct.Map_TimeStruct_t_], ptr %150, i64 0, i64 %152
  %154 = getelementptr inbounds %struct.Map_TimeStruct_t_, ptr %153, i32 0, i32 1
  %155 = load float, ptr %154, align 4
  %156 = fcmp ogt float %155, 0.000000e+00
  br i1 %156, label %157, label %179

157:                                              ; preds = %148
  %158 = load ptr, ptr %7, align 8
  %159 = getelementptr inbounds %struct.Map_TimeStruct_t_, ptr %158, i32 0, i32 1
  %160 = load float, ptr %159, align 4
  %161 = load ptr, ptr %8, align 8
  %162 = getelementptr inbounds %struct.Map_SuperStruct_t_, ptr %161, i32 0, i32 8
  %163 = load i32, ptr %11, align 4
  %164 = sext i32 %163 to i64
  %165 = getelementptr inbounds [6 x %struct.Map_TimeStruct_t_], ptr %162, i64 0, i64 %164
  %166 = getelementptr inbounds %struct.Map_TimeStruct_t_, ptr %165, i32 0, i32 1
  %167 = load float, ptr %166, align 4
  %168 = fadd float %160, %167
  store float %168, ptr %12, align 4
  %169 = load ptr, ptr %6, align 8
  %170 = getelementptr inbounds %struct.Map_TimeStruct_t_, ptr %169, i32 0, i32 1
  %171 = load float, ptr %170, align 4
  %172 = load float, ptr %12, align 4
  %173 = fcmp olt float %171, %172
  br i1 %173, label %174, label %178

174:                                              ; preds = %157
  %175 = load float, ptr %12, align 4
  %176 = load ptr, ptr %6, align 8
  %177 = getelementptr inbounds %struct.Map_TimeStruct_t_, ptr %176, i32 0, i32 1
  store float %175, ptr %177, align 4
  br label %178

178:                                              ; preds = %174, %157
  br label %179

179:                                              ; preds = %178, %148
  br label %180

180:                                              ; preds = %179
  %181 = load i32, ptr %11, align 4
  %182 = add nsw i32 %181, 1
  store i32 %182, ptr %11, align 4
  br label %31, !llvm.loop !8

183:                                              ; preds = %31
  %184 = load ptr, ptr %6, align 8
  %185 = getelementptr inbounds %struct.Map_TimeStruct_t_, ptr %184, i32 0, i32 0
  %186 = load float, ptr %185, align 4
  %187 = load ptr, ptr %6, align 8
  %188 = getelementptr inbounds %struct.Map_TimeStruct_t_, ptr %187, i32 0, i32 1
  %189 = load float, ptr %188, align 4
  %190 = fcmp ogt float %186, %189
  br i1 %190, label %191, label %195

191:                                              ; preds = %183
  %192 = load ptr, ptr %6, align 8
  %193 = getelementptr inbounds %struct.Map_TimeStruct_t_, ptr %192, i32 0, i32 0
  %194 = load float, ptr %193, align 4
  br label %199

195:                                              ; preds = %183
  %196 = load ptr, ptr %6, align 8
  %197 = getelementptr inbounds %struct.Map_TimeStruct_t_, ptr %196, i32 0, i32 1
  %198 = load float, ptr %197, align 4
  br label %199

199:                                              ; preds = %195, %191
  %200 = phi float [ %194, %191 ], [ %198, %195 ]
  ret float %200
}