; Function Attrs: nofree norecurse nosync nounwind memory(read, argmem: readwrite, inaccessiblemem: none) uwtable
define float @Map_MatchComputeReqTimes(ptr noundef readonly captures(none) %0, i32 noundef %1, ptr noundef writeonly captures(none) initializes((0, 8)) %2) local_unnamed_addr #2 {
  %4 = getelementptr inbounds nuw i8, ptr %0, i64 80
  %5 = sext i32 %1 to i64
  %6 = getelementptr inbounds [2 x %struct.Map_MatchStruct_t_], ptr %4, i64 0, i64 %5
  %7 = getelementptr inbounds nuw i8, ptr %6, i64 16
  %8 = load ptr, ptr %7, align 8
  %9 = getelementptr inbounds nuw i8, ptr %6, i64 12
  %10 = load i32, ptr %9, align 4
  %11 = getelementptr inbounds nuw i8, ptr %2, i64 4
  store float 0xC7B9999980000000, ptr %11, align 4
  store float 0xC7B9999980000000, ptr %2, align 4
  %12 = getelementptr inbounds nuw i8, ptr %0, i64 76
  %13 = load i8, ptr %12, align 4
  %14 = icmp sgt i8 %13, 0
  br i1 %14, label %.lr.ph, label %._crit_edge

.lr.ph:                                           ; preds = %3
  %15 = xor i32 %10, -1
  %16 = getelementptr inbounds nuw i8, ptr %0, i64 24
  %17 = getelementptr inbounds nuw i8, ptr %8, i64 80
  %18 = getelementptr inbounds nuw i8, ptr %8, i64 152
  br label %19

19:                                               ; preds = %.lr.ph, %75
  %20 = phi float [ 0xC7B9999980000000, %.lr.ph ], [ %76, %75 ]
  %21 = phi float [ 0xC7B9999980000000, %.lr.ph ], [ %77, %75 ]
  %22 = phi float [ 0xC7B9999980000000, %.lr.ph ], [ %53, %75 ]
  %23 = phi float [ 0xC7B9999980000000, %.lr.ph ], [ %54, %75 ]
  %indvars.iv = phi i64 [ 0, %.lr.ph ], [ %indvars.iv.next, %75 ]
  %24 = trunc nuw nsw i64 %indvars.iv to i32
  %25 = lshr i32 %15, %24
  %26 = and i32 %25, 1
  %27 = getelementptr inbounds nuw [6 x ptr], ptr %16, i64 0, i64 %indvars.iv
  %28 = load ptr, ptr %27, align 8
  %29 = getelementptr inbounds nuw i8, ptr %28, i64 120
  %30 = zext nneg i32 %26 to i64
  %31 = getelementptr inbounds nuw %struct.Map_TimeStruct_t_, ptr %29, i64 %30
  %32 = getelementptr inbounds nuw [6 x %struct.Map_TimeStruct_t_], ptr %17, i64 0, i64 %indvars.iv
  %33 = load float, ptr %32, align 4
  %34 = fcmp ogt float %33, 0.000000e+00
  br i1 %34, label %35, label %40

35:                                               ; preds = %19
  %36 = load float, ptr %31, align 4
  %37 = fadd float %33, %36
  %38 = fcmp olt float %23, %37
  br i1 %38, label %39, label %40

39:                                               ; preds = %35
  store float %37, ptr %2, align 4
  br label %40

40:                                               ; preds = %35, %39, %19
  %41 = phi float [ %22, %35 ], [ %37, %39 ], [ %22, %19 ]
  %42 = phi float [ %23, %35 ], [ %37, %39 ], [ %23, %19 ]
  %43 = getelementptr inbounds nuw i8, ptr %32, i64 4
  %44 = load float, ptr %43, align 4
  %45 = fcmp ogt float %44, 0.000000e+00
  br i1 %45, label %46, label %52

46:                                               ; preds = %40
  %47 = getelementptr inbounds nuw i8, ptr %31, i64 4
  %48 = load float, ptr %47, align 4
  %49 = fadd float %44, %48
  %50 = fcmp olt float %41, %49
  br i1 %50, label %51, label %52

51:                                               ; preds = %46
  store float %49, ptr %2, align 4
  br label %52

52:                                               ; preds = %46, %51, %40
  %53 = phi float [ %41, %46 ], [ %49, %51 ], [ %41, %40 ]
  %54 = phi float [ %41, %46 ], [ %49, %51 ], [ %42, %40 ]
  %55 = getelementptr inbounds nuw [6 x %struct.Map_TimeStruct_t_], ptr %18, i64 0, i64 %indvars.iv
  %56 = load float, ptr %55, align 4
  %57 = fcmp ogt float %56, 0.000000e+00
  br i1 %57, label %58, label %63

58:                                               ; preds = %52
  %59 = load float, ptr %31, align 4
  %60 = fadd float %56, %59
  %61 = fcmp olt float %21, %60
  br i1 %61, label %62, label %63

62:                                               ; preds = %58
  store float %60, ptr %11, align 4
  br label %63

63:                                               ; preds = %58, %62, %52
  %64 = phi float [ %20, %58 ], [ %60, %62 ], [ %20, %52 ]
  %65 = phi float [ %21, %58 ], [ %60, %62 ], [ %21, %52 ]
  %66 = getelementptr inbounds nuw i8, ptr %55, i64 4
  %67 = load float, ptr %66, align 4
  %68 = fcmp ogt float %67, 0.000000e+00
  br i1 %68, label %69, label %75

69:                                               ; preds = %63
  %70 = getelementptr inbounds nuw i8, ptr %31, i64 4
  %71 = load float, ptr %70, align 4
  %72 = fadd float %67, %71
  %73 = fcmp olt float %64, %72
  br i1 %73, label %74, label %75

74:                                               ; preds = %69
  store float %72, ptr %11, align 4
  br label %75

75:                                               ; preds = %63, %74, %69
  %76 = phi float [ %64, %63 ], [ %72, %74 ], [ %64, %69 ]
  %77 = phi float [ %65, %63 ], [ %72, %74 ], [ %64, %69 ]
  %indvars.iv.next = add nuw nsw i64 %indvars.iv, 1
  %78 = load i8, ptr %12, align 4
  %79 = sext i8 %78 to i64
  %80 = icmp slt i64 %indvars.iv.next, %79
  br i1 %80, label %19, label %._crit_edge, !llvm.loop !8

._crit_edge:                                      ; preds = %75, %3
  %81 = phi float [ 0xC7B9999980000000, %3 ], [ %76, %75 ]
  %82 = phi float [ 0xC7B9999980000000, %3 ], [ %53, %75 ]
  %83 = fcmp ogt float %82, %81
  %. = select i1 %83, float %82, float %81
  ret float %.
}